; Function Attrs: mustprogress uwtable
define void @_ZN3net23CachedNetworkParameters10SharedCtorEv(ptr noundef nonnull writeonly align 8 captures(none) dereferenceable(72) initializes((8, 16), (24, 72)) %0) local_unnamed_addr #1 align 2 {
  %2 = tail call noundef nonnull align 8 dereferenceable(32) ptr @_ZN6google8protobuf8internal14GetEmptyStringB5cxx11Ev()
  %3 = getelementptr inbounds nuw i8, ptr %0, i64 28
  store i32 0, ptr %3, align 4, !tbaa !18
  %4 = getelementptr inbounds nuw i8, ptr %0, i64 8
  %5 = load ptr, ptr @_ZN6google8protobuf8internal13empty_string_B5cxx11E, align 8, !tbaa !19
  store ptr %5, ptr %4, align 8, !tbaa !20
  %6 = getelementptr inbounds nuw i8, ptr %0, i64 32
  store ptr %5, ptr %6, align 8, !tbaa !20
  %7 = getelementptr inbounds nuw i8, ptr %0, i64 40
  %8 = getelementptr inbounds nuw i8, ptr %0, i64 24
  store i32 0, ptr %8, align 8
  tail call void @llvm.memset.p0.i64(ptr noundef nonnull align 8 dereferenceable(32) %7, i8 0, i64 32, i1 false)
  ret void
}